target datalayout = "e-m:e-p270:32:32-p271:32:32-p272:64:64-i64:64-i128:128-f80:128-n8:16:32:64-S128"
target triple = "x86_64-pc-linux-gnu"

; Function Attrs: mustprogress nounwind uwtable
define dso_local noundef float @_ZN4pbrt14FresnelMoment2Ef(float noundef %0) #3 {
  %2 = alloca float, align 4
  %3 = alloca float, align 4
  %4 = alloca float, align 4
  %5 = alloca float, align 4
  %6 = alloca float, align 4
  %7 = alloca float, align 4
  %8 = alloca i32, align 4
  %9 = alloca float, align 4
  %10 = alloca float, align 4
  %11 = alloca float, align 4
  store float %0, ptr %3, align 4, !tbaa !9
  call void @llvm.lifetime.start.p0(i64 4, ptr %4) #12
  %12 = load float, ptr %3, align 4, !tbaa !9
  %13 = load float, ptr %3, align 4, !tbaa !9
  %14 = fmul float %12, %13
  store float %14, ptr %4, align 4, !tbaa !9
  call void @llvm.lifetime.start.p0(i64 4, ptr %5) #12
  %15 = load float, ptr %4, align 4, !tbaa !9
  %16 = load float, ptr %3, align 4, !tbaa !9
  %17 = fmul float %15, %16
  store float %17, ptr %5, align 4, !tbaa !9
  call void @llvm.lifetime.start.p0(i64 4, ptr %6) #12
  %18 = load float, ptr %5, align 4, !tbaa !9
  %19 = load float, ptr %3, align 4, !tbaa !9
  %20 = fmul float %18, %19
  store float %20, ptr %6, align 4, !tbaa !9
  call void @llvm.lifetime.start.p0(i64 4, ptr %7) #12
  %21 = load float, ptr %6, align 4, !tbaa !9
  %22 = load float, ptr %3, align 4, !tbaa !9
  %23 = fmul float %21, %22
  store float %23, ptr %7, align 4, !tbaa !9
  %24 = load float, ptr %3, align 4, !tbaa !9
  %25 = fcmp olt float %24, 1.000000e+00
  br i1 %25, label %26, label %42

26:                                               ; preds = %1
  %27 = load float, ptr %3, align 4, !tbaa !9
  %28 = fmul float 0x3FEBF3B640000000, %27
  %29 = fsub float 0x3FD1AC4720000000, %28
  %30 = load float, ptr %4, align 4, !tbaa !9
  %31 = fmul float 0x3FF1EEAC80000000, %30
  %32 = fadd float %29, %31
  %33 = load float, ptr %5, align 4, !tbaa !9
  %34 = fmul float 0x3FE4D49520000000, %33
  %35 = fsub float %32, %34
  %36 = load float, ptr %6, align 4, !tbaa !9
  %37 = fmul float 0x3FB42E33E0000000, %36
  %38 = fadd float %35, %37
  %39 = load float, ptr %7, align 4, !tbaa !9
  %40 = fmul float 0x3FA8E21960000000, %39
  %41 = fadd float %38, %40
  store float %41, ptr %2, align 4
  store i32 1, ptr %8, align 4
  br label %75

42:                                               ; preds = %1
  call void @llvm.lifetime.start.p0(i64 4, ptr %9) #12
  %43 = load float, ptr %3, align 4, !tbaa !9
  %44 = fdiv float 1.000000e+00, %43
  store float %44, ptr %9, align 4, !tbaa !9
  call void @llvm.lifetime.start.p0(i64 4, ptr %10) #12
  %45 = load float, ptr %9, align 4, !tbaa !9
  %46 = load float, ptr %9, align 4, !tbaa !9
  %47 = fmul float %45, %46
  store float %47, ptr %10, align 4, !tbaa !9
  call void @llvm.lifetime.start.p0(i64 4, ptr %11) #12
  %48 = load float, ptr %10, align 4, !tbaa !9
  %49 = load float, ptr %9, align 4, !tbaa !9
  %50 = fmul float %48, %49
  store float %50, ptr %11, align 4, !tbaa !9
  %51 = load float, ptr %11, align 4, !tbaa !9
  %52 = fmul float 0x4046A78380000000, %51
  %53 = fadd float 0xC0811843A0000000, %52
  %54 = load float, ptr %10, align 4, !tbaa !9
  %55 = fmul float 0x406B573340000000, %54
  %56 = fsub float %53, %55
  %57 = load float, ptr %9, align 4, !tbaa !9
  %58 = fmul float 0x407CAD7CE0000000, %57
  %59 = fadd float %56, %58
  %60 = load float, ptr %3, align 4, !tbaa !9
  %61 = fmul float 0x407948E980000000, %60
  %62 = fadd float %59, %61
  %63 = load float, ptr %4, align 4, !tbaa !9
  %64 = fmul float 0x4067B09BA0000000, %63
  %65 = fsub float %62, %64
  %66 = load float, ptr %5, align 4, !tbaa !9
  %67 = fmul float 0x404B7762C0000000, %66
  %68 = fadd float %65, %67
  %69 = load float, ptr %6, align 4, !tbaa !9
  %70 = fmul float 0x4022031660000000, %69
  %71 = fsub float %68, %70
  %72 = load float, ptr %7, align 4, !tbaa !9
  %73 = fmul float 0x3FE47620E0000000, %72
  %74 = fadd float %71, %73
  store float %74, ptr %2, align 4
  store i32 1, ptr %8, align 4
  call void @llvm.lifetime.end.p0(i64 4, ptr %11) #12
  call void @llvm.lifetime.end.p0(i64 4, ptr %10) #12
  call void @llvm.lifetime.end.p0(i64 4, ptr %9) #12
  br label %75

75:                                               ; preds = %42, %26
  call void @llvm.lifetime.end.p0(i64 4, ptr %7) #12
  call void @llvm.lifetime.end.p0(i64 4, ptr %6) #12
  call void @llvm.lifetime.end.p0(i64 4, ptr %5) #12
  call void @llvm.lifetime.end.p0(i64 4, ptr %4) #12
  %76 = load float, ptr %2, align 4
  ret float %76
}