; Function Attrs: mustprogress nofree norecurse nosync nounwind willreturn memory(none) uwtable
define dso_local noundef float @_ZN4pbrt14FresnelMoment2Ef(float noundef %0) local_unnamed_addr #0 {
  %2 = fmul float %0, %0
  %3 = fmul float %0, %2
  %4 = fmul float %0, %3
  %5 = fmul float %0, %4
  %6 = fcmp olt float %0, 1.000000e+00
  br i1 %6, label %7, label %18

7:                                                ; preds = %1
  %8 = fmul float %0, 0x3FEBF3B640000000
  %9 = fsub float 0x3FD1AC4720000000, %8
  %10 = fmul float %2, 0x3FF1EEAC80000000
  %11 = fadd float %9, %10
  %12 = fmul float %3, 0x3FE4D49520000000
  %13 = fsub float %11, %12
  %14 = fmul float %4, 0x3FB42E33E0000000
  %15 = fadd float %13, %14
  %16 = fmul float %5, 0x3FA8E21960000000
  %17 = fadd float %15, %16
  br label %38

18:                                               ; preds = %1
  %19 = fdiv float 1.000000e+00, %0
  %20 = fmul float %19, %19
  %21 = fmul float %19, %20
  %22 = fmul float %21, 0x4046A78380000000
  %23 = fadd float %22, 0xC0811843A0000000
  %24 = fmul float %20, 0x406B573340000000
  %25 = fsub float %23, %24
  %26 = fmul float %19, 0x407CAD7CE0000000
  %27 = fadd float %26, %25
  %28 = fmul float %0, 0x407948E980000000
  %29 = fadd float %28, %27
  %30 = fmul float %2, 0x4067B09BA0000000
  %31 = fsub float %29, %30
  %32 = fmul float %3, 0x404B7762C0000000
  %33 = fadd float %32, %31
  %34 = fmul float %4, 0x4022031660000000
  %35 = fsub float %33, %34
  %36 = fmul float %5, 0x3FE47620E0000000
  %37 = fadd float %36, %35
  br label %38

38:                                               ; preds = %18, %7
  %.0 = phi float [ %17, %7 ], [ %37, %18 ]
  ret float %.0
}